; Function Attrs: mustprogress uwtable
define hidden void @_ZN12old_intervalC2ER25scoped_dependency_managerIPvERK8rationalPN18dependency_managerINS2_6configEE10dependencyESB_(ptr noundef nonnull align 8 dereferenceable(112) initializes((0, 12), (16, 20), (24, 36), (40, 48)) %0, ptr noundef nonnull align 8 dereferenceable(72) %1, ptr noundef nonnull align 8 dereferenceable(32) %2, ptr noundef %3, ptr noundef %4) unnamed_addr #3 align 2 personality ptr @__gxx_personality_v0 {
  store ptr %1, ptr %0, align 8, !tbaa !30
  %6 = getelementptr inbounds nuw i8, ptr %0, i64 8
  store i32 1, ptr %6, align 8, !tbaa !3
  %7 = getelementptr inbounds nuw i8, ptr %0, i64 16
  store i32 0, ptr %7, align 8, !tbaa !16
  %8 = getelementptr inbounds nuw i8, ptr %0, i64 20
  %9 = load i8, ptr %8, align 4
  %10 = and i8 %9, -4
  store i8 %10, ptr %8, align 4
  %11 = getelementptr inbounds nuw i8, ptr %0, i64 24
  store ptr null, ptr %11, align 8, !tbaa !20
  %12 = getelementptr inbounds nuw i8, ptr %0, i64 32
  store i32 1, ptr %12, align 8, !tbaa !16
  %13 = getelementptr inbounds nuw i8, ptr %0, i64 36
  %14 = load i8, ptr %13, align 4
  %15 = and i8 %14, -4
  store i8 %15, ptr %13, align 4
  %16 = getelementptr inbounds nuw i8, ptr %0, i64 40
  store ptr null, ptr %16, align 8, !tbaa !20
  %17 = load ptr, ptr @_ZN8rational13g_mpq_managerE, align 8, !tbaa !14
  %18 = getelementptr inbounds nuw i8, ptr %2, i64 4
  %19 = load i8, ptr %18, align 4
  %20 = and i8 %19, 1
  %21 = icmp eq i8 %20, 0
  br i1 %21, label %22, label %24

22:                                               ; preds = %5
  %23 = load i32, ptr %2, align 8, !tbaa !16
  store i32 %23, ptr %7, align 8, !tbaa !16
  store i8 %10, ptr %8, align 4
  br label %_ZN11mpq_managerILb1EE3setER3mpzRKS1_.exit.i.i.i

24:                                               ; preds = %5
  tail call void @_ZN11mpz_managerILb1EE7big_setER3mpzRKS1_(ptr noundef nonnull align 8 dereferenceable(728) %17, ptr noundef nonnull align 8 dereferenceable(32) %7, ptr noundef nonnull align 8 dereferenceable(32) %2)
  br label %_ZN11mpq_managerILb1EE3setER3mpzRKS1_.exit.i.i.i

_ZN11mpq_managerILb1EE3setER3mpzRKS1_.exit.i.i.i: ; preds = %24, %22
  %25 = getelementptr inbounds nuw i8, ptr %2, i64 16
  %26 = getelementptr inbounds nuw i8, ptr %2, i64 20
  %27 = load i8, ptr %26, align 4
  %28 = and i8 %27, 1
  %29 = icmp eq i8 %28, 0
  br i1 %29, label %30, label %34

30:                                               ; preds = %_ZN11mpq_managerILb1EE3setER3mpzRKS1_.exit.i.i.i
  %31 = load i32, ptr %25, align 8, !tbaa !16
  store i32 %31, ptr %12, align 8, !tbaa !16
  %32 = load i8, ptr %13, align 4
  %33 = and i8 %32, -2
  store i8 %33, ptr %13, align 4
  br label %_ZN11ext_numeralC2ERK8rational.exit

34:                                               ; preds = %_ZN11mpq_managerILb1EE3setER3mpzRKS1_.exit.i.i.i
  tail call void @_ZN11mpz_managerILb1EE7big_setER3mpzRKS1_(ptr noundef nonnull align 8 dereferenceable(728) %17, ptr noundef nonnull align 8 dereferenceable(16) %12, ptr noundef nonnull align 8 dereferenceable(16) %25)
  br label %_ZN11ext_numeralC2ERK8rational.exit

_ZN11ext_numeralC2ERK8rational.exit:              ; preds = %30, %34
  %35 = getelementptr inbounds nuw i8, ptr %0, i64 48
  store i32 1, ptr %35, align 8, !tbaa !3
  %36 = getelementptr inbounds nuw i8, ptr %0, i64 56
  store i32 0, ptr %36, align 8, !tbaa !16
  %37 = getelementptr inbounds nuw i8, ptr %0, i64 60
  %38 = load i8, ptr %37, align 4
  %39 = and i8 %38, -4
  store i8 %39, ptr %37, align 4
  %40 = getelementptr inbounds nuw i8, ptr %0, i64 64
  store ptr null, ptr %40, align 8, !tbaa !20
  %41 = getelementptr inbounds nuw i8, ptr %0, i64 72
  store i32 1, ptr %41, align 8, !tbaa !16
  %42 = getelementptr inbounds nuw i8, ptr %0, i64 76
  %43 = load i8, ptr %42, align 4
  %44 = and i8 %43, -4
  store i8 %44, ptr %42, align 4
  %45 = getelementptr inbounds nuw i8, ptr %0, i64 80
  store ptr null, ptr %45, align 8, !tbaa !20
  %46 = load ptr, ptr @_ZN8rational13g_mpq_managerE, align 8, !tbaa !14
  %47 = load i8, ptr %18, align 4
  %48 = and i8 %47, 1
  %49 = icmp eq i8 %48, 0
  br i1 %49, label %50, label %52

50:                                               ; preds = %_ZN11ext_numeralC2ERK8rational.exit
  %51 = load i32, ptr %2, align 8, !tbaa !16
  store i32 %51, ptr %36, align 8, !tbaa !16
  store i8 %39, ptr %37, align 4
  br label %_ZN11mpq_managerILb1EE3setER3mpzRKS1_.exit.i.i.i7

52:                                               ; preds = %_ZN11ext_numeralC2ERK8rational.exit
  invoke void @_ZN11mpz_managerILb1EE7big_setER3mpzRKS1_(ptr noundef nonnull align 8 dereferenceable(728) %46, ptr noundef nonnull align 8 dereferenceable(32) %36, ptr noundef nonnull align 8 dereferenceable(32) %2)
          to label %_ZN11mpq_managerILb1EE3setER3mpzRKS1_.exit.i.i.i7 unwind label %65

_ZN11mpq_managerILb1EE3setER3mpzRKS1_.exit.i.i.i7: ; preds = %52, %50
  %53 = load i8, ptr %26, align 4
  %54 = and i8 %53, 1
  %55 = icmp eq i8 %54, 0
  br i1 %55, label %56, label %60

56:                                               ; preds = %_ZN11mpq_managerILb1EE3setER3mpzRKS1_.exit.i.i.i7
  %57 = load i32, ptr %25, align 8, !tbaa !16
  store i32 %57, ptr %41, align 8, !tbaa !16
  %58 = load i8, ptr %42, align 4
  %59 = and i8 %58, -2
  store i8 %59, ptr %42, align 4
  br label %_ZN11ext_numeralC2ERK8rational.exit9

60:                                               ; preds = %_ZN11mpq_managerILb1EE3setER3mpzRKS1_.exit.i.i.i7
  invoke void @_ZN11mpz_managerILb1EE7big_setER3mpzRKS1_(ptr noundef nonnull align 8 dereferenceable(728) %46, ptr noundef nonnull align 8 dereferenceable(16) %41, ptr noundef nonnull align 8 dereferenceable(16) %25)
          to label %_ZN11ext_numeralC2ERK8rational.exit9 unwind label %65

_ZN11ext_numeralC2ERK8rational.exit9:             ; preds = %56, %60
  %61 = getelementptr inbounds nuw i8, ptr %0, i64 88
  store i8 0, ptr %61, align 8, !tbaa !32
  %62 = getelementptr inbounds nuw i8, ptr %0, i64 89
  store i8 0, ptr %62, align 1, !tbaa !36
  %63 = getelementptr inbounds nuw i8, ptr %0, i64 96
  store ptr %3, ptr %63, align 8, !tbaa !37
  %64 = getelementptr inbounds nuw i8, ptr %0, i64 104
  store ptr %4, ptr %64, align 8, !tbaa !38
  ret void

65:                                               ; preds = %60, %52
  %66 = landingpad { ptr, i32 }
          cleanup
  tail call void @_ZN11ext_numeralD2Ev(ptr noundef nonnull align 8 dereferenceable(40) %6) #22
  resume { ptr, i32 } %66
}